target datalayout = "e-m:e-p270:32:32-p271:32:32-p272:64:64-i64:64-i128:128-f80:128-n8:16:32:64-S128"
target triple = "x86_64-pc-linux-gnu"

; Function Attrs: nounwind uwtable
define hidden i64 @minOR(i64 noundef %0, i64 noundef %1, i64 noundef %2, i64 noundef %3) #0 {
  %5 = alloca i64, align 8
  %6 = alloca i64, align 8
  %7 = alloca i64, align 8
  %8 = alloca i64, align 8
  %9 = alloca i64, align 8
  %10 = alloca i64, align 8
  store i64 %0, ptr %5, align 8
  store i64 %1, ptr %6, align 8
  store i64 %2, ptr %7, align 8
  store i64 %3, ptr %8, align 8
  store i64 -9223372036854775808, ptr %9, align 8
  br label %11

11:                                               ; preds = %57, %4
  %12 = load i64, ptr %9, align 8
  %13 = icmp ne i64 %12, 0
  br i1 %13, label %14, label %60

14:                                               ; preds = %11
  %15 = load i64, ptr %5, align 8
  %16 = xor i64 %15, -1
  %17 = load i64, ptr %7, align 8
  %18 = and i64 %16, %17
  %19 = load i64, ptr %9, align 8
  %20 = and i64 %18, %19
  %21 = icmp ne i64 %20, 0
  br i1 %21, label %22, label %35

22:                                               ; preds = %14
  %23 = load i64, ptr %5, align 8
  %24 = load i64, ptr %9, align 8
  %25 = or i64 %23, %24
  %26 = load i64, ptr %9, align 8
  %27 = sub i64 0, %26
  %28 = and i64 %25, %27
  store i64 %28, ptr %10, align 8
  %29 = load i64, ptr %10, align 8
  %30 = load i64, ptr %6, align 8
  %31 = icmp ule i64 %29, %30
  br i1 %31, label %32, label %34

32:                                               ; preds = %22
  %33 = load i64, ptr %10, align 8
  store i64 %33, ptr %5, align 8
  br label %60

34:                                               ; preds = %22
  br label %57

35:                                               ; preds = %14
  %36 = load i64, ptr %5, align 8
  %37 = load i64, ptr %7, align 8
  %38 = xor i64 %37, -1
  %39 = and i64 %36, %38
  %40 = load i64, ptr %9, align 8
  %41 = and i64 %39, %40
  %42 = icmp ne i64 %41, 0
  br i1 %42, label %43, label %56

43:                                               ; preds = %35
  %44 = load i64, ptr %7, align 8
  %45 = load i64, ptr %9, align 8
  %46 = or i64 %44, %45
  %47 = load i64, ptr %9, align 8
  %48 = sub i64 0, %47
  %49 = and i64 %46, %48
  store i64 %49, ptr %10, align 8
  %50 = load i64, ptr %10, align 8
  %51 = load i64, ptr %8, align 8
  %52 = icmp ule i64 %50, %51
  br i1 %52, label %53, label %55

53:                                               ; preds = %43
  %54 = load i64, ptr %10, align 8
  store i64 %54, ptr %7, align 8
  br label %60

55:                                               ; preds = %43
  br label %56

56:                                               ; preds = %55, %35
  br label %57

57:                                               ; preds = %56, %34
  %58 = load i64, ptr %9, align 8
  %59 = lshr i64 %58, 1
  store i64 %59, ptr %9, align 8
  br label %11

60:                                               ; preds = %53, %32, %11
  %61 = load i64, ptr %5, align 8
  %62 = load i64, ptr %7, align 8
  %63 = or i64 %61, %62
  ret i64 %63
}