; Function Attrs: nofree norecurse nosync nounwind memory(none) uwtable
define hidden i64 @minOR(i64 noundef %0, i64 noundef %1, i64 noundef %2, i64 noundef %3) local_unnamed_addr #5 {
  %5 = xor i64 %0, -1
  %6 = and i64 %5, %2
  %7 = xor i64 %2, -1
  %8 = and i64 %7, %0
  br label %9

9:                                                ; preds = %4, %21
  %.030 = phi i64 [ -9223372036854775808, %4 ], [ %22, %21 ]
  %10 = and i64 %6, %.030
  %.not26 = icmp eq i64 %10, 0
  br i1 %.not26, label %15, label %11

11:                                               ; preds = %9
  %12 = or i64 %.030, %0
  %13 = sub i64 0, %.030
  %14 = and i64 %12, %13
  %.not29 = icmp ugt i64 %14, %1
  br i1 %.not29, label %21, label %23

15:                                               ; preds = %9
  %16 = and i64 %8, %.030
  %.not27 = icmp eq i64 %16, 0
  br i1 %.not27, label %21, label %17

17:                                               ; preds = %15
  %18 = or i64 %.030, %2
  %19 = sub i64 0, %.030
  %20 = and i64 %18, %19
  %.not28 = icmp ugt i64 %20, %3
  br i1 %.not28, label %21, label %23

21:                                               ; preds = %15, %17, %11
  %22 = lshr i64 %.030, 1
  %.not = icmp ult i64 %.030, 2
  br i1 %.not, label %23, label %9

23:                                               ; preds = %17, %11, %21
  %.023 = phi i64 [ %2, %21 ], [ %2, %11 ], [ %20, %17 ]
  %.022 = phi i64 [ %0, %21 ], [ %14, %11 ], [ %0, %17 ]
  %24 = or i64 %.022, %.023
  ret i64 %24
}